target datalayout = "e-m:e-p270:32:32-p271:32:32-p272:64:64-i64:64-i128:128-f80:128-n8:16:32:64-S128"
target triple = "x86_64-pc-linux-gnu"

%struct.CeltBlock = type { [21 x float], [21 x float], [21 x float], [2 x [21 x float]], [21 x i8], [7 x i8], [2048 x float], [960 x float], [128 x float], [960 x float], i32, [3 x float], i32, [3 x float], i32, [3 x float], float, [12 x i8] }

@ff_celt_window2 = external hidden constant [120 x float], align 16

; Function Attrs: nounwind uwtable
define internal void @celt_postfilter_apply_transition(ptr noundef %0, ptr noundef %1) #0 {
  %3 = alloca ptr, align 8
  %4 = alloca ptr, align 8
  %5 = alloca i32, align 4
  %6 = alloca i32, align 4
  %7 = alloca float, align 4
  %8 = alloca float, align 4
  %9 = alloca float, align 4
  %10 = alloca float, align 4
  %11 = alloca float, align 4
  %12 = alloca float, align 4
  %13 = alloca float, align 4
  %14 = alloca float, align 4
  %15 = alloca float, align 4
  %16 = alloca float, align 4
  %17 = alloca float, align 4
  %18 = alloca i32, align 4
  %19 = alloca i32, align 4
  %20 = alloca float, align 4
  store ptr %0, ptr %3, align 8, !tbaa !49
  store ptr %1, ptr %4, align 8, !tbaa !57
  call void @llvm.lifetime.start.p0(i64 4, ptr %5) #8
  %21 = load ptr, ptr %3, align 8, !tbaa !49
  %22 = getelementptr inbounds nuw %struct.CeltBlock, ptr %21, i32 0, i32 14
  %23 = load i32, ptr %22, align 16, !tbaa !91
  store i32 %23, ptr %5, align 4, !tbaa !14
  call void @llvm.lifetime.start.p0(i64 4, ptr %6) #8
  %24 = load ptr, ptr %3, align 8, !tbaa !49
  %25 = getelementptr inbounds nuw %struct.CeltBlock, ptr %24, i32 0, i32 12
  %26 = load i32, ptr %25, align 16, !tbaa !90
  store i32 %26, ptr %6, align 4, !tbaa !14
  call void @llvm.lifetime.start.p0(i64 4, ptr %7) #8
  call void @llvm.lifetime.start.p0(i64 4, ptr %8) #8
  call void @llvm.lifetime.start.p0(i64 4, ptr %9) #8
  call void @llvm.lifetime.start.p0(i64 4, ptr %10) #8
  call void @llvm.lifetime.start.p0(i64 4, ptr %11) #8
  call void @llvm.lifetime.start.p0(i64 4, ptr %12) #8
  call void @llvm.lifetime.start.p0(i64 4, ptr %13) #8
  call void @llvm.lifetime.start.p0(i64 4, ptr %14) #8
  call void @llvm.lifetime.start.p0(i64 4, ptr %15) #8
  call void @llvm.lifetime.start.p0(i64 4, ptr %16) #8
  call void @llvm.lifetime.start.p0(i64 4, ptr %17) #8
  call void @llvm.lifetime.start.p0(i64 4, ptr %18) #8
  %27 = load ptr, ptr %3, align 8, !tbaa !49
  %28 = getelementptr inbounds nuw %struct.CeltBlock, ptr %27, i32 0, i32 13
  %29 = getelementptr inbounds [3 x float], ptr %28, i64 0, i64 0
  %30 = load float, ptr %29, align 4, !tbaa !46
  %31 = fpext nsz float %30 to double
  %32 = fcmp nsz oeq double %31, 0.000000e+00
  br i1 %32, label %33, label %41

33:                                               ; preds = %2
  %34 = load ptr, ptr %3, align 8, !tbaa !49
  %35 = getelementptr inbounds nuw %struct.CeltBlock, ptr %34, i32 0, i32 15
  %36 = getelementptr inbounds [3 x float], ptr %35, i64 0, i64 0
  %37 = load float, ptr %36, align 4, !tbaa !46
  %38 = fpext nsz float %37 to double
  %39 = fcmp nsz oeq double %38, 0.000000e+00
  br i1 %39, label %40, label %41

40:                                               ; preds = %33
  store i32 1, ptr %19, align 4
  br label %215

41:                                               ; preds = %33, %2
  %42 = load ptr, ptr %3, align 8, !tbaa !49
  %43 = getelementptr inbounds nuw %struct.CeltBlock, ptr %42, i32 0, i32 15
  %44 = getelementptr inbounds [3 x float], ptr %43, i64 0, i64 0
  %45 = load float, ptr %44, align 4, !tbaa !46
  store float %45, ptr %7, align 4, !tbaa !46
  %46 = load ptr, ptr %3, align 8, !tbaa !49
  %47 = getelementptr inbounds nuw %struct.CeltBlock, ptr %46, i32 0, i32 15
  %48 = getelementptr inbounds [3 x float], ptr %47, i64 0, i64 1
  %49 = load float, ptr %48, align 4, !tbaa !46
  store float %49, ptr %8, align 4, !tbaa !46
  %50 = load ptr, ptr %3, align 8, !tbaa !49
  %51 = getelementptr inbounds nuw %struct.CeltBlock, ptr %50, i32 0, i32 15
  %52 = getelementptr inbounds [3 x float], ptr %51, i64 0, i64 2
  %53 = load float, ptr %52, align 4, !tbaa !46
  store float %53, ptr %9, align 4, !tbaa !46
  %54 = load ptr, ptr %3, align 8, !tbaa !49
  %55 = getelementptr inbounds nuw %struct.CeltBlock, ptr %54, i32 0, i32 13
  %56 = getelementptr inbounds [3 x float], ptr %55, i64 0, i64 0
  %57 = load float, ptr %56, align 4, !tbaa !46
  store float %57, ptr %10, align 4, !tbaa !46
  %58 = load ptr, ptr %3, align 8, !tbaa !49
  %59 = getelementptr inbounds nuw %struct.CeltBlock, ptr %58, i32 0, i32 13
  %60 = getelementptr inbounds [3 x float], ptr %59, i64 0, i64 1
  %61 = load float, ptr %60, align 4, !tbaa !46
  store float %61, ptr %11, align 4, !tbaa !46
  %62 = load ptr, ptr %3, align 8, !tbaa !49
  %63 = getelementptr inbounds nuw %struct.CeltBlock, ptr %62, i32 0, i32 13
  %64 = getelementptr inbounds [3 x float], ptr %63, i64 0, i64 2
  %65 = load float, ptr %64, align 4, !tbaa !46
  store float %65, ptr %12, align 4, !tbaa !46
  %66 = load ptr, ptr %4, align 8, !tbaa !57
  %67 = load i32, ptr %6, align 4, !tbaa !14
  %68 = sub nsw i32 0, %67
  %69 = add nsw i32 %68, 1
  %70 = sext i32 %69 to i64
  %71 = getelementptr inbounds float, ptr %66, i64 %70
  %72 = load float, ptr %71, align 4, !tbaa !46
  store float %72, ptr %14, align 4, !tbaa !46
  %73 = load ptr, ptr %4, align 8, !tbaa !57
  %74 = load i32, ptr %6, align 4, !tbaa !14
  %75 = sub nsw i32 0, %74
  %76 = sext i32 %75 to i64
  %77 = getelementptr inbounds float, ptr %73, i64 %76
  %78 = load float, ptr %77, align 4, !tbaa !46
  store float %78, ptr %15, align 4, !tbaa !46
  %79 = load ptr, ptr %4, align 8, !tbaa !57
  %80 = load i32, ptr %6, align 4, !tbaa !14
  %81 = sub nsw i32 0, %80
  %82 = sub nsw i32 %81, 1
  %83 = sext i32 %82 to i64
  %84 = getelementptr inbounds float, ptr %79, i64 %83
  %85 = load float, ptr %84, align 4, !tbaa !46
  store float %85, ptr %16, align 4, !tbaa !46
  %86 = load ptr, ptr %4, align 8, !tbaa !57
  %87 = load i32, ptr %6, align 4, !tbaa !14
  %88 = sub nsw i32 0, %87
  %89 = sub nsw i32 %88, 2
  %90 = sext i32 %89 to i64
  %91 = getelementptr inbounds float, ptr %86, i64 %90
  %92 = load float, ptr %91, align 4, !tbaa !46
  store float %92, ptr %17, align 4, !tbaa !46
  store i32 0, ptr %18, align 4, !tbaa !14
  br label %93

93:                                               ; preds = %211, %41
  %94 = load i32, ptr %18, align 4, !tbaa !14
  %95 = icmp slt i32 %94, 120
  br i1 %95, label %96, label %214

96:                                               ; preds = %93
  call void @llvm.lifetime.start.p0(i64 4, ptr %20) #8
  %97 = load i32, ptr %18, align 4, !tbaa !14
  %98 = sext i32 %97 to i64
  %99 = getelementptr inbounds [120 x float], ptr @ff_celt_window2, i64 0, i64 %98
  %100 = load float, ptr %99, align 4, !tbaa !46
  store float %100, ptr %20, align 4, !tbaa !46
  %101 = load ptr, ptr %4, align 8, !tbaa !57
  %102 = load i32, ptr %18, align 4, !tbaa !14
  %103 = load i32, ptr %6, align 4, !tbaa !14
  %104 = sub nsw i32 %102, %103
  %105 = add nsw i32 %104, 2
  %106 = sext i32 %105 to i64
  %107 = getelementptr inbounds float, ptr %101, i64 %106
  %108 = load float, ptr %107, align 4, !tbaa !46
  store float %108, ptr %13, align 4, !tbaa !46
  %109 = load float, ptr %20, align 4, !tbaa !46
  %110 = fpext nsz float %109 to double
  %111 = fsub nsz double 1.000000e+00, %110
  %112 = load float, ptr %7, align 4, !tbaa !46
  %113 = fpext nsz float %112 to double
  %114 = fmul nsz double %111, %113
  %115 = load ptr, ptr %4, align 8, !tbaa !57
  %116 = load i32, ptr %18, align 4, !tbaa !14
  %117 = load i32, ptr %5, align 4, !tbaa !14
  %118 = sub nsw i32 %116, %117
  %119 = sext i32 %118 to i64
  %120 = getelementptr inbounds float, ptr %115, i64 %119
  %121 = load float, ptr %120, align 4, !tbaa !46
  %122 = fpext nsz float %121 to double
  %123 = load float, ptr %20, align 4, !tbaa !46
  %124 = fpext nsz float %123 to double
  %125 = fsub nsz double 1.000000e+00, %124
  %126 = load float, ptr %8, align 4, !tbaa !46
  %127 = fpext nsz float %126 to double
  %128 = fmul nsz double %125, %127
  %129 = load ptr, ptr %4, align 8, !tbaa !57
  %130 = load i32, ptr %18, align 4, !tbaa !14
  %131 = load i32, ptr %5, align 4, !tbaa !14
  %132 = sub nsw i32 %130, %131
  %133 = sub nsw i32 %132, 1
  %134 = sext i32 %133 to i64
  %135 = getelementptr inbounds float, ptr %129, i64 %134
  %136 = load float, ptr %135, align 4, !tbaa !46
  %137 = load ptr, ptr %4, align 8, !tbaa !57
  %138 = load i32, ptr %18, align 4, !tbaa !14
  %139 = load i32, ptr %5, align 4, !tbaa !14
  %140 = sub nsw i32 %138, %139
  %141 = add nsw i32 %140, 1
  %142 = sext i32 %141 to i64
  %143 = getelementptr inbounds float, ptr %137, i64 %142
  %144 = load float, ptr %143, align 4, !tbaa !46
  %145 = fadd nsz float %136, %144
  %146 = fpext nsz float %145 to double
  %147 = fmul nsz double %128, %146
  %148 = call nsz double @llvm.fmuladd.f64(double %114, double %122, double %147)
  %149 = load float, ptr %20, align 4, !tbaa !46
  %150 = fpext nsz float %149 to double
  %151 = fsub nsz double 1.000000e+00, %150
  %152 = load float, ptr %9, align 4, !tbaa !46
  %153 = fpext nsz float %152 to double
  %154 = fmul nsz double %151, %153
  %155 = load ptr, ptr %4, align 8, !tbaa !57
  %156 = load i32, ptr %18, align 4, !tbaa !14
  %157 = load i32, ptr %5, align 4, !tbaa !14
  %158 = sub nsw i32 %156, %157
  %159 = sub nsw i32 %158, 2
  %160 = sext i32 %159 to i64
  %161 = getelementptr inbounds float, ptr %155, i64 %160
  %162 = load float, ptr %161, align 4, !tbaa !46
  %163 = load ptr, ptr %4, align 8, !tbaa !57
  %164 = load i32, ptr %18, align 4, !tbaa !14
  %165 = load i32, ptr %5, align 4, !tbaa !14
  %166 = sub nsw i32 %164, %165
  %167 = add nsw i32 %166, 2
  %168 = sext i32 %167 to i64
  %169 = getelementptr inbounds float, ptr %163, i64 %168
  %170 = load float, ptr %169, align 4, !tbaa !46
  %171 = fadd nsz float %162, %170
  %172 = fpext nsz float %171 to double
  %173 = call nsz double @llvm.fmuladd.f64(double %154, double %172, double %148)
  %174 = load float, ptr %20, align 4, !tbaa !46
  %175 = load float, ptr %10, align 4, !tbaa !46
  %176 = fmul nsz float %174, %175
  %177 = load float, ptr %15, align 4, !tbaa !46
  %178 = fmul nsz float %176, %177
  %179 = fpext nsz float %178 to double
  %180 = fadd nsz double %173, %179
  %181 = load float, ptr %20, align 4, !tbaa !46
  %182 = load float, ptr %11, align 4, !tbaa !46
  %183 = fmul nsz float %181, %182
  %184 = load float, ptr %14, align 4, !tbaa !46
  %185 = load float, ptr %16, align 4, !tbaa !46
  %186 = fadd nsz float %184, %185
  %187 = fmul nsz float %183, %186
  %188 = fpext nsz float %187 to double
  %189 = fadd nsz double %180, %188
  %190 = load float, ptr %20, align 4, !tbaa !46
  %191 = load float, ptr %12, align 4, !tbaa !46
  %192 = fmul nsz float %190, %191
  %193 = load float, ptr %13, align 4, !tbaa !46
  %194 = load float, ptr %17, align 4, !tbaa !46
  %195 = fadd nsz float %193, %194
  %196 = fmul nsz float %192, %195
  %197 = fpext nsz float %196 to double
  %198 = fadd nsz double %189, %197
  %199 = load ptr, ptr %4, align 8, !tbaa !57
  %200 = load i32, ptr %18, align 4, !tbaa !14
  %201 = sext i32 %200 to i64
  %202 = getelementptr inbounds float, ptr %199, i64 %201
  %203 = load float, ptr %202, align 4, !tbaa !46
  %204 = fpext nsz float %203 to double
  %205 = fadd nsz double %204, %198
  %206 = fptrunc nsz double %205 to float
  store float %206, ptr %202, align 4, !tbaa !46
  %207 = load float, ptr %16, align 4, !tbaa !46
  store float %207, ptr %17, align 4, !tbaa !46
  %208 = load float, ptr %15, align 4, !tbaa !46
  store float %208, ptr %16, align 4, !tbaa !46
  %209 = load float, ptr %14, align 4, !tbaa !46
  store float %209, ptr %15, align 4, !tbaa !46
  %210 = load float, ptr %13, align 4, !tbaa !46
  store float %210, ptr %14, align 4, !tbaa !46
  call void @llvm.lifetime.end.p0(i64 4, ptr %20) #8
  br label %211

211:                                              ; preds = %96
  %212 = load i32, ptr %18, align 4, !tbaa !14
  %213 = add nsw i32 %212, 1
  store i32 %213, ptr %18, align 4, !tbaa !14
  br label %93, !llvm.loop !119

214:                                              ; preds = %93
  store i32 0, ptr %19, align 4
  br label %215

215:                                              ; preds = %214, %40
  call void @llvm.lifetime.end.p0(i64 4, ptr %18) #8
  call void @llvm.lifetime.end.p0(i64 4, ptr %17) #8
  call void @llvm.lifetime.end.p0(i64 4, ptr %16) #8
  call void @llvm.lifetime.end.p0(i64 4, ptr %15) #8
  call void @llvm.lifetime.end.p0(i64 4, ptr %14) #8
  call void @llvm.lifetime.end.p0(i64 4, ptr %13) #8
  call void @llvm.lifetime.end.p0(i64 4, ptr %12) #8
  call void @llvm.lifetime.end.p0(i64 4, ptr %11) #8
  call void @llvm.lifetime.end.p0(i64 4, ptr %10) #8
  call void @llvm.lifetime.end.p0(i64 4, ptr %9) #8
  call void @llvm.lifetime.end.p0(i64 4, ptr %8) #8
  call void @llvm.lifetime.end.p0(i64 4, ptr %7) #8
  call void @llvm.lifetime.end.p0(i64 4, ptr %6) #8
  call void @llvm.lifetime.end.p0(i64 4, ptr %5) #8
  %216 = load i32, ptr %19, align 4
  switch i32 %216, label %218 [
    i32 0, label %217
    i32 1, label %217
  ]

217:                                              ; preds = %215, %215
  ret void

218:                                              ; preds = %215
  unreachable
}