; Function Attrs: nofree norecurse nosync nounwind memory(argmem: readwrite) uwtable
define internal fastcc void @celt_postfilter_apply_transition(ptr noundef readonly captures(none) %0, ptr noundef captures(none) %1) unnamed_addr #5 {
  %3 = getelementptr inbounds nuw i8, ptr %0, i64 16852
  %4 = load float, ptr %3, align 4, !tbaa !35
  %5 = fcmp nsz oeq float %4, 0.000000e+00
  %6 = getelementptr inbounds nuw i8, ptr %0, i64 16868
  %7 = load float, ptr %6, align 4, !tbaa !35
  %8 = fcmp nsz oeq float %7, 0.000000e+00
  %or.cond = select i1 %5, i1 %8, i1 false
  br i1 %or.cond, label %.loopexit, label %._crit_edge

._crit_edge:                                      ; preds = %2
  %9 = getelementptr inbounds nuw i8, ptr %0, i64 16848
  %10 = load i32, ptr %9, align 16, !tbaa !74
  %11 = getelementptr inbounds nuw i8, ptr %0, i64 16864
  %12 = load i32, ptr %11, align 16, !tbaa !75
  %13 = getelementptr inbounds nuw i8, ptr %0, i64 16872
  %14 = load float, ptr %13, align 4, !tbaa !35
  %15 = getelementptr inbounds nuw i8, ptr %0, i64 16876
  %16 = load float, ptr %15, align 4, !tbaa !35
  %17 = getelementptr inbounds nuw i8, ptr %0, i64 16856
  %18 = load float, ptr %17, align 4, !tbaa !35
  %19 = getelementptr inbounds nuw i8, ptr %0, i64 16860
  %20 = load float, ptr %19, align 4, !tbaa !35
  %21 = sub nsw i32 0, %10
  %22 = sub i32 1, %10
  %23 = sext i32 %22 to i64
  %24 = getelementptr inbounds float, ptr %1, i64 %23
  %25 = load float, ptr %24, align 4, !tbaa !35
  %26 = sext i32 %21 to i64
  %27 = getelementptr inbounds float, ptr %1, i64 %26
  %28 = load float, ptr %27, align 4, !tbaa !35
  %29 = xor i32 %10, -1
  %30 = sext i32 %29 to i64
  %31 = getelementptr inbounds float, ptr %1, i64 %30
  %32 = load float, ptr %31, align 4, !tbaa !35
  %33 = sub i32 -2, %10
  %34 = sext i32 %33 to i64
  %35 = getelementptr inbounds float, ptr %1, i64 %34
  %36 = load float, ptr %35, align 4, !tbaa !35
  %invariant.gep = getelementptr i8, ptr %1, i64 8
  %37 = fpext nsz float %7 to double
  %38 = fpext nsz float %14 to double
  %39 = fpext nsz float %16 to double
  %40 = sext i32 %10 to i64
  %41 = sext i32 %12 to i64
  br label %42

42:                                               ; preds = %._crit_edge, %42
  %indvars.iv = phi i64 [ 0, %._crit_edge ], [ %indvars.iv.next, %42 ]
  %.069 = phi float [ %25, %._crit_edge ], [ %46, %42 ]
  %.06267 = phi float [ %36, %._crit_edge ], [ %.06366, %42 ]
  %.06366 = phi float [ %32, %._crit_edge ], [ %.06465, %42 ]
  %.06465 = phi float [ %28, %._crit_edge ], [ %.069, %42 ]
  %43 = getelementptr inbounds nuw [120 x float], ptr @ff_celt_window2, i64 0, i64 %indvars.iv
  %44 = load float, ptr %43, align 4, !tbaa !35
  %45 = sub nsw i64 %indvars.iv, %40
  %gep = getelementptr float, ptr %invariant.gep, i64 %45
  %46 = load float, ptr %gep, align 4, !tbaa !35
  %47 = fpext nsz float %44 to double
  %48 = fsub nsz double 1.000000e+00, %47
  %49 = fmul nsz double %48, %37
  %50 = sub nsw i64 %indvars.iv, %41
  %51 = getelementptr inbounds float, ptr %1, i64 %50
  %52 = load float, ptr %51, align 4, !tbaa !35
  %53 = fpext nsz float %52 to double
  %54 = fmul nsz double %48, %38
  %55 = getelementptr i8, ptr %51, i64 -4
  %56 = load float, ptr %55, align 4, !tbaa !35
  %57 = getelementptr i8, ptr %51, i64 4
  %58 = load float, ptr %57, align 4, !tbaa !35
  %59 = fadd nsz float %56, %58
  %60 = fpext nsz float %59 to double
  %61 = fmul nsz double %54, %60
  %62 = tail call nsz double @llvm.fmuladd.f64(double %49, double %53, double %61)
  %63 = fmul nsz double %48, %39
  %64 = getelementptr i8, ptr %51, i64 -8
  %65 = load float, ptr %64, align 4, !tbaa !35
  %66 = getelementptr i8, ptr %51, i64 8
  %67 = load float, ptr %66, align 4, !tbaa !35
  %68 = fadd nsz float %65, %67
  %69 = fpext nsz float %68 to double
  %70 = tail call nsz double @llvm.fmuladd.f64(double %63, double %69, double %62)
  %71 = fmul nsz float %4, %44
  %72 = fmul nsz float %.06465, %71
  %73 = fpext nsz float %72 to double
  %74 = fadd nsz double %70, %73
  %75 = fmul nsz float %18, %44
  %76 = fadd nsz float %.06366, %.069
  %77 = fmul nsz float %76, %75
  %78 = fpext nsz float %77 to double
  %79 = fadd nsz double %74, %78
  %80 = fmul nsz float %20, %44
  %81 = fadd nsz float %.06267, %46
  %82 = fmul nsz float %80, %81
  %83 = fpext nsz float %82 to double
  %84 = fadd nsz double %79, %83
  %85 = getelementptr inbounds nuw float, ptr %1, i64 %indvars.iv
  %86 = load float, ptr %85, align 4, !tbaa !35
  %87 = fpext nsz float %86 to double
  %88 = fadd nsz double %84, %87
  %89 = fptrunc nsz double %88 to float
  store float %89, ptr %85, align 4, !tbaa !35
  %indvars.iv.next = add nuw nsw i64 %indvars.iv, 1
  %exitcond.not = icmp eq i64 %indvars.iv.next, 120
  br i1 %exitcond.not, label %.loopexit, label %42, !llvm.loop !110

.loopexit:                                        ; preds = %42, %2
  ret void
}